target datalayout = "e-m:e-p270:32:32-p271:32:32-p272:64:64-i64:64-i128:128-f80:128-n8:16:32:64-S128"
target triple = "x86_64-unknown-linux-gnu"

%"struct.google::protobuf::internal::LazyString::InitValue" = type { ptr, i64 }
%"class.std::allocator" = type { i8 }
%"class.google::protobuf::internal::LazyString" = type { %union.anon, %"struct.std::atomic.0" }
%union.anon = type { %"struct.google::protobuf::internal::LazyString::InitValue", [16 x i8] }
%"struct.std::atomic.0" = type { %"struct.std::__atomic_base.1" }
%"struct.std::__atomic_base.1" = type { ptr }

@__dso_handle = external hidden global i8
@_ZZNK6google8protobuf8internal10LazyString4InitB5cxx11EvE2mu = internal global { { i64 } } zeroinitializer, align 8
@_ZGVZNK6google8protobuf8internal10LazyString4InitB5cxx11EvE2mu = internal global i64 0, align 8

; Function Attrs: noreturn nounwind uwtable
define linkonce_odr hidden void @__clang_call_terminate(ptr noundef %0) #9 comdat {
  %2 = call ptr @__cxa_begin_catch(ptr %0) #3
  call void @_ZSt9terminatev() #11
  unreachable
}

; Function Attrs: mustprogress nounwind uwtable
define linkonce_odr noundef i32 @_ZStanSt12memory_orderSt23__memory_order_modifier(i32 noundef %__m, i32 noundef %__mod) #5 comdat {
entry:
  %__m.addr = alloca i32, align 4
  %__mod.addr = alloca i32, align 4
  store i32 %__m, ptr %__m.addr, align 4
  store i32 %__mod, ptr %__mod.addr, align 4
  %0 = load i32, ptr %__m.addr, align 4
  %1 = load i32, ptr %__mod.addr, align 4
  %and = and i32 %0, %1
  ret i32 %and
}

; Function Attrs: mustprogress nounwind uwtable
define linkonce_odr hidden void @_ZNSt6atomicIPKNSt7__cxx1112basic_stringIcSt11char_traitsIcESaIcEEEE5storeES7_St12memory_order(ptr noundef nonnull align 8 dereferenceable(8) %this, ptr noundef %__p, i32 noundef %__m) #5 comdat align 2 {
entry:
  %this.addr.i = alloca ptr, align 8
  %__p.addr.i = alloca ptr, align 8
  %__m.addr.i = alloca i32, align 4
  %__b.i = alloca i32, align 4
  %.atomictmp.i = alloca ptr, align 8
  %this.addr = alloca ptr, align 8
  %__p.addr = alloca ptr, align 8
  %__m.addr = alloca i32, align 4
  store ptr %this, ptr %this.addr, align 8
  store ptr %__p, ptr %__p.addr, align 8
  store i32 %__m, ptr %__m.addr, align 4
  %this1 = load ptr, ptr %this.addr, align 8
  %_M_b = getelementptr inbounds %"struct.std::atomic.0", ptr %this1, i32 0, i32 0
  %0 = load ptr, ptr %__p.addr, align 8
  %1 = load i32, ptr %__m.addr, align 4
  store ptr %_M_b, ptr %this.addr.i, align 8
  store ptr %0, ptr %__p.addr.i, align 8
  store i32 %1, ptr %__m.addr.i, align 4
  %this1.i = load ptr, ptr %this.addr.i, align 8
  %2 = load i32, ptr %__m.addr.i, align 4
  %call.i = call noundef i32 @_ZStanSt12memory_orderSt23__memory_order_modifier(i32 noundef %2, i32 noundef 65535)
  store i32 %call.i, ptr %__b.i, align 4
  %3 = load i32, ptr %__m.addr.i, align 4
  %4 = load ptr, ptr %__p.addr.i, align 8
  store ptr %4, ptr %.atomictmp.i, align 8
  switch i32 %3, label %monotonic.i [
    i32 3, label %release.i
    i32 5, label %seqcst.i
  ]

monotonic.i:                                      ; preds = %entry
  %5 = load i64, ptr %.atomictmp.i, align 8
  store atomic i64 %5, ptr %this1.i monotonic, align 8
  br label %_ZNSt13__atomic_baseIPKNSt7__cxx1112basic_stringIcSt11char_traitsIcESaIcEEEE5storeES7_St12memory_order.exit

release.i:                                        ; preds = %entry
  %6 = load i64, ptr %.atomictmp.i, align 8
  store atomic i64 %6, ptr %this1.i release, align 8
  br label %_ZNSt13__atomic_baseIPKNSt7__cxx1112basic_stringIcSt11char_traitsIcESaIcEEEE5storeES7_St12memory_order.exit

seqcst.i:                                         ; preds = %entry
  %7 = load i64, ptr %.atomictmp.i, align 8
  store atomic i64 %7, ptr %this1.i seq_cst, align 8
  br label %_ZNSt13__atomic_baseIPKNSt7__cxx1112basic_stringIcSt11char_traitsIcESaIcEEEE5storeES7_St12memory_order.exit

_ZNSt13__atomic_baseIPKNSt7__cxx1112basic_stringIcSt11char_traitsIcESaIcEEEE5storeES7_St12memory_order.exit: ; preds = %seqcst.i, %release.i, %monotonic.i
  ret void
}

; Function Attrs: mustprogress nounwind uwtable
define linkonce_odr hidden noundef ptr @_ZNKSt6atomicIPKNSt7__cxx1112basic_stringIcSt11char_traitsIcESaIcEEEE4loadESt12memory_order(ptr noundef nonnull align 8 dereferenceable(8) %this, i32 noundef %__m) #5 comdat align 2 personality ptr @__gxx_personality_v0 {
entry:
  %this.addr.i = alloca ptr, align 8
  %__m.addr.i = alloca i32, align 4
  %__b.i = alloca i32, align 4
  %atomic-temp.i = alloca ptr, align 8
  %this.addr = alloca ptr, align 8
  %__m.addr = alloca i32, align 4
  store ptr %this, ptr %this.addr, align 8
  store i32 %__m, ptr %__m.addr, align 4
  %this1 = load ptr, ptr %this.addr, align 8
  %_M_b = getelementptr inbounds %"struct.std::atomic.0", ptr %this1, i32 0, i32 0
  %0 = load i32, ptr %__m.addr, align 4
  store ptr %_M_b, ptr %this.addr.i, align 8
  store i32 %0, ptr %__m.addr.i, align 4
  %this1.i = load ptr, ptr %this.addr.i, align 8
  %1 = load i32, ptr %__m.addr.i, align 4
  %call.i = invoke noundef i32 @_ZStanSt12memory_orderSt23__memory_order_modifier(i32 noundef %1, i32 noundef 65535)
          to label %invoke.cont.i unwind label %terminate.lpad.i

invoke.cont.i:                                    ; preds = %entry
  store i32 %call.i, ptr %__b.i, align 4
  %2 = load i32, ptr %__m.addr.i, align 4
  switch i32 %2, label %monotonic.i [
    i32 1, label %acquire.i
    i32 2, label %acquire.i
    i32 5, label %seqcst.i
  ]

monotonic.i:                                      ; preds = %invoke.cont.i
  %3 = load atomic i64, ptr %this1.i monotonic, align 8
  store i64 %3, ptr %atomic-temp.i, align 8
  br label %_ZNKSt13__atomic_baseIPKNSt7__cxx1112basic_stringIcSt11char_traitsIcESaIcEEEE4loadESt12memory_order.exit

acquire.i:                                        ; preds = %invoke.cont.i, %invoke.cont.i
  %4 = load atomic i64, ptr %this1.i acquire, align 8
  store i64 %4, ptr %atomic-temp.i, align 8
  br label %_ZNKSt13__atomic_baseIPKNSt7__cxx1112basic_stringIcSt11char_traitsIcESaIcEEEE4loadESt12memory_order.exit

seqcst.i:                                         ; preds = %invoke.cont.i
  %5 = load atomic i64, ptr %this1.i seq_cst, align 8
  store i64 %5, ptr %atomic-temp.i, align 8
  br label %_ZNKSt13__atomic_baseIPKNSt7__cxx1112basic_stringIcSt11char_traitsIcESaIcEEEE4loadESt12memory_order.exit

terminate.lpad.i:                                 ; preds = %entry
  %6 = landingpad { ptr, i32 }
          catch ptr null
  %7 = extractvalue { ptr, i32 } %6, 0
  call void @__clang_call_terminate(ptr %7) #11
  unreachable

_ZNKSt13__atomic_baseIPKNSt7__cxx1112basic_stringIcSt11char_traitsIcESaIcEEEE4loadESt12memory_order.exit: ; preds = %seqcst.i, %acquire.i, %monotonic.i
  %8 = load ptr, ptr %atomic-temp.i, align 8
  ret ptr %8
}

; Function Attrs: mustprogress uwtable
define noundef nonnull align 8 dereferenceable(32) ptr @_ZNK6google8protobuf8internal10LazyString4InitB5cxx11Ev(ptr noundef nonnull align 8 dereferenceable(40) %this) #4 align 2 personality ptr @__gxx_personality_v0 {
entry:
  %this.addr = alloca ptr, align 8
  %res = alloca ptr, align 8
  %init_value = alloca %"struct.google::protobuf::internal::LazyString::InitValue", align 8
  %ref.tmp = alloca %"class.std::allocator", align 1
  %exn.slot = alloca ptr, align 8
  %ehselector.slot = alloca i32, align 4
  store ptr %this, ptr %this.addr, align 8
  %this1 = load ptr, ptr %this.addr, align 8
  %0 = load atomic i8, ptr @_ZGVZNK6google8protobuf8internal10LazyString4InitB5cxx11EvE2mu acquire, align 8
  %guard.uninitialized = icmp eq i8 %0, 0
  br i1 %guard.uninitialized, label %init.check, label %init.end, !prof !4

init.check:                                       ; preds = %entry
  %1 = call i32 @__cxa_guard_acquire(ptr @_ZGVZNK6google8protobuf8internal10LazyString4InitB5cxx11EvE2mu) #3
  %tobool = icmp ne i32 %1, 0
  br i1 %tobool, label %init, label %init.end

init:                                             ; preds = %init.check
  %2 = call i32 @__cxa_atexit(ptr @_ZN4absl12lts_202308025MutexD1Ev, ptr @_ZZNK6google8protobuf8internal10LazyString4InitB5cxx11EvE2mu, ptr @__dso_handle) #3
  call void @__cxa_guard_release(ptr @_ZGVZNK6google8protobuf8internal10LazyString4InitB5cxx11EvE2mu) #3
  br label %init.end

init.end:                                         ; preds = %init, %init.check, %entry
  call void @_ZN4absl12lts_202308025Mutex4LockEv(ptr noundef nonnull align 8 dereferenceable(8) @_ZZNK6google8protobuf8internal10LazyString4InitB5cxx11EvE2mu)
  %inited_ = getelementptr inbounds %"class.google::protobuf::internal::LazyString", ptr %this1, i32 0, i32 1
  %call = call noundef ptr @_ZNKSt6atomicIPKNSt7__cxx1112basic_stringIcSt11char_traitsIcESaIcEEEE4loadESt12memory_order(ptr noundef nonnull align 8 dereferenceable(8) %inited_, i32 noundef 2) #3
  store ptr %call, ptr %res, align 8
  %3 = load ptr, ptr %res, align 8
  %cmp = icmp eq ptr %3, null
  br i1 %cmp, label %if.then, label %if.end

if.then:                                          ; preds = %init.end
  %4 = getelementptr inbounds %"class.google::protobuf::internal::LazyString", ptr %this1, i32 0, i32 0
  call void @llvm.memcpy.p0.p0.i64(ptr align 8 %init_value, ptr align 8 %4, i64 16, i1 false)
  %5 = getelementptr inbounds %"class.google::protobuf::internal::LazyString", ptr %this1, i32 0, i32 0
  %arraydecay = getelementptr inbounds [32 x i8], ptr %5, i64 0, i64 0
  %ptr = getelementptr inbounds %"struct.google::protobuf::internal::LazyString::InitValue", ptr %init_value, i32 0, i32 0
  %6 = load ptr, ptr %ptr, align 8
  %size = getelementptr inbounds %"struct.google::protobuf::internal::LazyString::InitValue", ptr %init_value, i32 0, i32 1
  %7 = load i64, ptr %size, align 8
  call void @_ZNSaIcEC1Ev(ptr noundef nonnull align 1 dereferenceable(1) %ref.tmp) #3
  invoke void @_ZNSt7__cxx1112basic_stringIcSt11char_traitsIcESaIcEEC1EPKcmRKS3_(ptr noundef nonnull align 8 dereferenceable(32) %arraydecay, ptr noundef %6, i64 noundef %7, ptr noundef nonnull align 1 dereferenceable(1) %ref.tmp)
          to label %invoke.cont unwind label %lpad

invoke.cont:                                      ; preds = %if.then
  store ptr %arraydecay, ptr %res, align 8
  call void @_ZNSaIcED1Ev(ptr noundef nonnull align 1 dereferenceable(1) %ref.tmp) #3
  %inited_2 = getelementptr inbounds %"class.google::protobuf::internal::LazyString", ptr %this1, i32 0, i32 1
  %8 = load ptr, ptr %res, align 8
  call void @_ZNSt6atomicIPKNSt7__cxx1112basic_stringIcSt11char_traitsIcESaIcEEEE5storeES7_St12memory_order(ptr noundef nonnull align 8 dereferenceable(8) %inited_2, ptr noundef %8, i32 noundef 3) #3
  br label %if.end

lpad:                                             ; preds = %if.then
  %9 = landingpad { ptr, i32 }
          cleanup
  %10 = extractvalue { ptr, i32 } %9, 0
  store ptr %10, ptr %exn.slot, align 8
  %11 = extractvalue { ptr, i32 } %9, 1
  store i32 %11, ptr %ehselector.slot, align 4
  call void @_ZNSaIcED1Ev(ptr noundef nonnull align 1 dereferenceable(1) %ref.tmp) #3
  br label %eh.resume

if.end:                                           ; preds = %invoke.cont, %init.end
  call void @_ZN4absl12lts_202308025Mutex6UnlockEv(ptr noundef nonnull align 8 dereferenceable(8) @_ZZNK6google8protobuf8internal10LazyString4InitB5cxx11EvE2mu)
  %12 = load ptr, ptr %res, align 8
  ret ptr %12

eh.resume:                                        ; preds = %lpad
  %exn = load ptr, ptr %exn.slot, align 8
  %sel = load i32, ptr %ehselector.slot, align 4
  %lpad.val = insertvalue { ptr, i32 } poison, ptr %exn, 0
  %lpad.val3 = insertvalue { ptr, i32 } %lpad.val, i32 %sel, 1
  resume { ptr, i32 } %lpad.val3
}