; Function Attrs: mustprogress uwtable
define noundef nonnull align 8 dereferenceable(32) ptr @_ZNK6google8protobuf8internal10LazyString4InitB5cxx11Ev(ptr noundef nonnull align 8 dereferenceable(40) %this) local_unnamed_addr #3 align 2 personality ptr @__gxx_personality_v0 {
entry:
  %ref.tmp = alloca %"class.std::allocator", align 1
  %0 = load atomic i8, ptr @_ZGVZNK6google8protobuf8internal10LazyString4InitB5cxx11EvE2mu acquire, align 8
  %guard.uninitialized = icmp eq i8 %0, 0
  br i1 %guard.uninitialized, label %init.check, label %init.end, !prof !4

init.check:                                       ; preds = %entry
  %1 = tail call i32 @__cxa_guard_acquire(ptr nonnull @_ZGVZNK6google8protobuf8internal10LazyString4InitB5cxx11EvE2mu) #10
  %tobool.not = icmp eq i32 %1, 0
  br i1 %tobool.not, label %init.end, label %init

init:                                             ; preds = %init.check
  %2 = tail call i32 @__cxa_atexit(ptr nonnull @_ZN4absl12lts_202308025MutexD1Ev, ptr nonnull @_ZZNK6google8protobuf8internal10LazyString4InitB5cxx11EvE2mu, ptr nonnull @__dso_handle) #10
  tail call void @__cxa_guard_release(ptr nonnull @_ZGVZNK6google8protobuf8internal10LazyString4InitB5cxx11EvE2mu) #10
  br label %init.end

init.end:                                         ; preds = %init, %init.check, %entry
  tail call void @_ZN4absl12lts_202308025Mutex4LockEv(ptr noundef nonnull align 8 dereferenceable(8) @_ZZNK6google8protobuf8internal10LazyString4InitB5cxx11EvE2mu)
  %inited_ = getelementptr inbounds nuw i8, ptr %this, i64 32
  %3 = load atomic i64, ptr %inited_ acquire, align 8
  %atomic-temp.i.0.i = inttoptr i64 %3 to ptr
  %cmp = icmp eq i64 %3, 0
  br i1 %cmp, label %if.then, label %if.end

if.then:                                          ; preds = %init.end
  %init_value.sroa.0.0.copyload = load ptr, ptr %this, align 8
  %init_value.sroa.2.0..sroa_idx = getelementptr inbounds nuw i8, ptr %this, i64 8
  %init_value.sroa.2.0.copyload = load i64, ptr %init_value.sroa.2.0..sroa_idx, align 8
  call void @_ZNSaIcEC1Ev(ptr noundef nonnull align 1 dereferenceable(1) %ref.tmp) #10
  invoke void @_ZNSt7__cxx1112basic_stringIcSt11char_traitsIcESaIcEEC1EPKcmRKS3_(ptr noundef nonnull align 8 dereferenceable(32) %this, ptr noundef %init_value.sroa.0.0.copyload, i64 noundef %init_value.sroa.2.0.copyload, ptr noundef nonnull align 1 dereferenceable(1) %ref.tmp)
          to label %invoke.cont unwind label %lpad

invoke.cont:                                      ; preds = %if.then
  call void @_ZNSaIcED1Ev(ptr noundef nonnull align 1 dereferenceable(1) %ref.tmp) #10
  %4 = ptrtoint ptr %this to i64
  store atomic i64 %4, ptr %inited_ release, align 8
  br label %if.end

lpad:                                             ; preds = %if.then
  %5 = landingpad { ptr, i32 }
          cleanup
  call void @_ZNSaIcED1Ev(ptr noundef nonnull align 1 dereferenceable(1) %ref.tmp) #10
  resume { ptr, i32 } %5

if.end:                                           ; preds = %invoke.cont, %init.end
  %res.0 = phi ptr [ %this, %invoke.cont ], [ %atomic-temp.i.0.i, %init.end ]
  call void @_ZN4absl12lts_202308025Mutex6UnlockEv(ptr noundef nonnull align 8 dereferenceable(8) @_ZZNK6google8protobuf8internal10LazyString4InitB5cxx11EvE2mu)
  ret ptr %res.0
}